target datalayout = "e-m:e-p270:32:32-p271:32:32-p272:64:64-i64:64-i128:128-f80:128-n8:16:32:64-S128"
target triple = "x86_64-pc-linux-gnu"

%struct.ExecCount = type { i64, ptr, i32, i64 }
%struct.qemu_plugin_u64 = type { ptr, i64 }

; Function Attrs: nounwind sspstrong uwtable
define internal i32 @cmp_exec_count(ptr noundef %0, ptr noundef %1) #0 {
  %3 = alloca ptr, align 8
  %4 = alloca ptr, align 8
  %5 = alloca ptr, align 8
  %6 = alloca ptr, align 8
  %7 = alloca i64, align 8
  %8 = alloca %struct.qemu_plugin_u64, align 8
  %9 = alloca i64, align 8
  %10 = alloca %struct.qemu_plugin_u64, align 8
  store ptr %0, ptr %3, align 8
  store ptr %1, ptr %4, align 8
  call void @llvm.lifetime.start.p0(i64 8, ptr %5) #9
  %11 = load ptr, ptr %3, align 8
  store ptr %11, ptr %5, align 8
  call void @llvm.lifetime.start.p0(i64 8, ptr %6) #9
  %12 = load ptr, ptr %4, align 8
  store ptr %12, ptr %6, align 8
  call void @llvm.lifetime.start.p0(i64 8, ptr %7) #9
  %13 = getelementptr inbounds nuw %struct.qemu_plugin_u64, ptr %8, i32 0, i32 0
  %14 = load ptr, ptr %5, align 8
  %15 = getelementptr inbounds nuw %struct.ExecCount, ptr %14, i32 0, i32 1
  %16 = load ptr, ptr %15, align 8
  store ptr %16, ptr %13, align 8
  %17 = getelementptr inbounds nuw %struct.qemu_plugin_u64, ptr %8, i32 0, i32 1
  store i64 0, ptr %17, align 8
  %18 = getelementptr inbounds nuw { ptr, i64 }, ptr %8, i32 0, i32 0
  %19 = load ptr, ptr %18, align 8
  %20 = getelementptr inbounds nuw { ptr, i64 }, ptr %8, i32 0, i32 1
  %21 = load i64, ptr %20, align 8
  %22 = call i64 @qemu_plugin_u64_sum(ptr %19, i64 %21)
  store i64 %22, ptr %7, align 8
  call void @llvm.lifetime.start.p0(i64 8, ptr %9) #9
  %23 = getelementptr inbounds nuw %struct.qemu_plugin_u64, ptr %10, i32 0, i32 0
  %24 = load ptr, ptr %6, align 8
  %25 = getelementptr inbounds nuw %struct.ExecCount, ptr %24, i32 0, i32 1
  %26 = load ptr, ptr %25, align 8
  store ptr %26, ptr %23, align 8
  %27 = getelementptr inbounds nuw %struct.qemu_plugin_u64, ptr %10, i32 0, i32 1
  store i64 0, ptr %27, align 8
  %28 = getelementptr inbounds nuw { ptr, i64 }, ptr %10, i32 0, i32 0
  %29 = load ptr, ptr %28, align 8
  %30 = getelementptr inbounds nuw { ptr, i64 }, ptr %10, i32 0, i32 1
  %31 = load i64, ptr %30, align 8
  %32 = call i64 @qemu_plugin_u64_sum(ptr %29, i64 %31)
  store i64 %32, ptr %9, align 8
  %33 = load i64, ptr %7, align 8
  %34 = load i64, ptr %9, align 8
  %35 = icmp ugt i64 %33, %34
  %36 = select i1 %35, i32 -1, i32 1
  call void @llvm.lifetime.end.p0(i64 8, ptr %9) #9
  call void @llvm.lifetime.end.p0(i64 8, ptr %7) #9
  call void @llvm.lifetime.end.p0(i64 8, ptr %6) #9
  call void @llvm.lifetime.end.p0(i64 8, ptr %5) #9
  ret i32 %36
}