; Function Attrs: nounwind sspstrong uwtable
define internal range(i32 -1, 2) i32 @cmp_exec_count(ptr noundef readonly captures(none) %0, ptr noundef readonly captures(none) %1) #0 {
  %3 = getelementptr inbounds nuw i8, ptr %0, i64 8
  %4 = load ptr, ptr %3, align 8
  %5 = tail call i64 @qemu_plugin_u64_sum(ptr %4, i64 0) #7
  %6 = getelementptr inbounds nuw i8, ptr %1, i64 8
  %7 = load ptr, ptr %6, align 8
  %8 = tail call i64 @qemu_plugin_u64_sum(ptr %7, i64 0) #7
  %9 = icmp ugt i64 %5, %8
  %10 = select i1 %9, i32 -1, i32 1
  ret i32 %10
}